target datalayout = "e-m:e-p270:32:32-p271:32:32-p272:64:64-i64:64-i128:128-f80:128-n8:16:32:64-S128"
target triple = "x86_64-pc-linux-gnu"

@.str.3 = private unnamed_addr constant [9 x i8] c"worker.c\00", align 1
@skip_xact_finish_lsn = internal global i64 0, align 8
@.str.40 = private unnamed_addr constant [64 x i8] c"logical replication completed skipping transaction at LSN %X/%X\00", align 1
@__func__.stop_skipping_changes = private unnamed_addr constant [22 x i8] c"stop_skipping_changes\00", align 1

; Function Attrs: nounwind uwtable
define internal void @stop_skipping_changes() #0 {
  %1 = alloca i32, align 4
  %2 = load i64, ptr @skip_xact_finish_lsn, align 8
  %3 = icmp eq i64 %2, 0
  %4 = xor i1 %3, true
  %5 = zext i1 %4 to i32
  %6 = icmp ne i32 %5, 0
  %7 = zext i1 %6 to i32
  %8 = sext i32 %7 to i64
  %9 = call i64 @llvm.expect.i64(i64 %8, i64 0)
  %10 = icmp ne i64 %9, 0
  br i1 %10, label %12, label %11

11:                                               ; preds = %0
  br label %30

12:                                               ; preds = %0
  br label %13

13:                                               ; preds = %12
  br i1 false, label %14, label %16

14:                                               ; preds = %13
  %15 = call zeroext i1 @errstart_cold(i32 noundef 15, ptr noundef null) #13
  br i1 %15, label %18, label %28

16:                                               ; preds = %13
  %17 = call zeroext i1 @errstart(i32 noundef 15, ptr noundef null)
  br i1 %17, label %18, label %28

18:                                               ; preds = %16, %14
  br label %19

19:                                               ; preds = %18
  br label %20

20:                                               ; preds = %19
  br label %21

21:                                               ; preds = %20
  store i32 1, ptr %1, align 4
  %22 = load i64, ptr @skip_xact_finish_lsn, align 8
  %23 = lshr i64 %22, 32
  %24 = trunc i64 %23 to i32
  %25 = load i64, ptr @skip_xact_finish_lsn, align 8
  %26 = trunc i64 %25 to i32
  %27 = call i32 (ptr, ...) @errmsg(ptr noundef @.str.40, i32 noundef %24, i32 noundef %26)
  call void @errfinish(ptr noundef @.str.3, i32 noundef 4900, ptr noundef @__func__.stop_skipping_changes)
  br label %28

28:                                               ; preds = %21, %16, %14
  br label %29

29:                                               ; preds = %28
  store i64 0, ptr @skip_xact_finish_lsn, align 8
  br label %30

30:                                               ; preds = %29, %11
  ret void
}