; Function Attrs: nounwind uwtable
define internal fastcc void @stop_skipping_changes() unnamed_addr #0 {
  %1 = load i64, ptr @skip_xact_finish_lsn, align 8
  %.not = icmp eq i64 %1, 0
  br i1 %.not, label %11, label %2, !prof !6

2:                                                ; preds = %0
  %3 = tail call zeroext i1 @errstart(i32 noundef 15, ptr noundef null) #17
  br i1 %3, label %4, label %10

4:                                                ; preds = %2
  %5 = load i64, ptr @skip_xact_finish_lsn, align 8
  %6 = lshr i64 %5, 32
  %7 = trunc nuw i64 %6 to i32
  %8 = trunc i64 %5 to i32
  %9 = tail call i32 (ptr, ...) @errmsg(ptr noundef nonnull @.str.40, i32 noundef %7, i32 noundef %8) #17
  tail call void @errfinish(ptr noundef nonnull @.str.3, i32 noundef 4900, ptr noundef nonnull @__func__.stop_skipping_changes) #17
  br label %10

10:                                               ; preds = %2, %4
  store i64 0, ptr @skip_xact_finish_lsn, align 8
  br label %11

11:                                               ; preds = %0, %10
  ret void
}